; Function Attrs: mustprogress uwtable
define hidden void @_ZN3smt12theory_array26instantiate_extensionalityEPNS_5enodeES2_(ptr noundef nonnull align 8 dereferenceable(444) %0, ptr noundef %1, ptr noundef %2) local_unnamed_addr #4 align 2 {
  %4 = getelementptr inbounds nuw i8, ptr %0, i64 264
  %5 = load ptr, ptr %4, align 8, !tbaa !574
  %6 = getelementptr inbounds nuw i8, ptr %5, i64 9
  %7 = load i8, ptr %6, align 1, !tbaa !621, !range !568, !noundef !569
  %8 = trunc nuw i8 %7 to i1
  br i1 %8, label %9, label %15

9:                                                ; preds = %3
  %10 = tail call noundef zeroext i1 @_ZN3smt17theory_array_base21assert_extensionalityEPNS_5enodeES2_(ptr noundef nonnull align 8 dereferenceable(249) %0, ptr noundef %1, ptr noundef %2)
  br i1 %10, label %11, label %15

11:                                               ; preds = %9
  %12 = getelementptr inbounds nuw i8, ptr %0, i64 284
  %13 = load i32, ptr %12, align 4, !tbaa !622
  %14 = add i32 %13, 1
  store i32 %14, ptr %12, align 4, !tbaa !622
  br label %15

15:                                               ; preds = %11, %9, %3
  ret void
}